; ModuleID = 'bench/linux/original/hid-redragon.ll'
source_filename = "bench/linux/original/hid-redragon.ll"
target datalayout = "e-m:e-p270:32:32-p271:32:32-p272:64:64-i64:64-i128:128-f80:128-n8:16:32:64-S128"
target triple = "x86_64-unknown-linux-gnu"

module asm ".section\09\22.initcall6.init\22, \22a\22\09\09"
module asm "__initcall__kmod_hid_redragon__420_60_redragon_driver_init6:\09\09\09"
module asm ".long\09redragon_driver_init - .\09"
module asm ".previous\09\09\09\09\09"

%struct.hid_driver = type { ptr, ptr, %struct.list_head, %struct.spinlock, ptr, ptr, ptr, ptr, ptr, ptr, ptr, ptr, ptr, ptr, ptr, ptr, ptr, ptr, ptr, ptr, %struct.device_driver }
%struct.list_head = type { ptr, ptr }
%struct.spinlock = type { %union.anon }
%union.anon = type { %struct.raw_spinlock }
%struct.raw_spinlock = type { %struct.qspinlock }
%struct.qspinlock = type { %union.anon.0 }
%union.anon.0 = type { %struct.atomic_t }
%struct.atomic_t = type { i32 }
%struct.device_driver = type { ptr, ptr, ptr, ptr, i8, i32, ptr, ptr, ptr, ptr, ptr, ptr, ptr, ptr, ptr, ptr, ptr, ptr, ptr }
%struct.hid_device_id = type { i16, i16, i32, i32, i64 }

@__UNIQUE_ID___addressable_redragon_driver_init421 = internal global ptr @redragon_driver_init, section ".discard.addressable", align 8
@redragon_driver = internal global %struct.hid_driver { ptr @.str.1, ptr @redragon_devices, %struct.list_head zeroinitializer, %struct.spinlock zeroinitializer, ptr null, ptr null, ptr null, ptr null, ptr null, ptr null, ptr null, ptr null, ptr @redragon_report_fixup, ptr null, ptr null, ptr null, ptr null, ptr null, ptr null, ptr null, %struct.device_driver zeroinitializer }, align 8
@__exitcall_redragon_driver_exit = internal global ptr @redragon_driver_exit, section ".exitcall.exit", align 8
@__UNIQUE_ID_file422 = internal constant [43 x i8] c"hid_redragon.file=drivers/hid/hid-redragon\00", section ".modinfo", align 1
@__UNIQUE_ID_license423 = internal constant [25 x i8] c"hid_redragon.license=GPL\00", section ".modinfo", align 1
@.str = private unnamed_addr constant [13 x i8] c"hid_redragon\00", align 1
@.str.1 = private unnamed_addr constant [9 x i8] c"redragon\00", align 1
@redragon_devices = internal constant [2 x %struct.hid_device_id] [%struct.hid_device_id { i16 3, i16 0, i32 3141, i32 30219, i64 0 }, %struct.hid_device_id zeroinitializer], align 16
@.str.2 = private unnamed_addr constant [42 x i8] c"Fixing Redragon ASURA report descriptor.\0A\00", align 1
@llvm.compiler.used = appending global [5 x ptr] [ptr @__UNIQUE_ID___addressable_redragon_driver_init421, ptr @__UNIQUE_ID_file422, ptr @__UNIQUE_ID_license423, ptr @__exitcall_redragon_driver_exit, ptr @redragon_driver_exit], section "llvm.metadata"

; Function Attrs: cold fn_ret_thunk_extern nounwind null_pointer_is_valid optsize
define internal i32 @redragon_driver_init() #0 section ".init.text" align 16 {
  %1 = tail call i32 @__hid_register_driver(ptr noundef nonnull @redragon_driver, ptr noundef null, ptr noundef nonnull @.str) #4
  ret i32 %1
}

; Function Attrs: cold fn_ret_thunk_extern nounwind null_pointer_is_valid optsize
define internal void @redragon_driver_exit() #0 section ".exit.text" align 16 {
  tail call void @hid_unregister_driver(ptr noundef nonnull @redragon_driver) #4
  ret void
}

; Function Attrs: null_pointer_is_valid
declare dso_local void @hid_unregister_driver(ptr noundef) local_unnamed_addr #1

; Function Attrs: null_pointer_is_valid
declare dso_local i32 @__hid_register_driver(ptr noundef, ptr noundef, ptr noundef) local_unnamed_addr #1

; Function Attrs: fn_ret_thunk_extern nounwind null_pointer_is_valid
define internal noundef ptr @redragon_report_fixup(ptr noundef %0, ptr noundef returned %1, ptr nocapture noundef readonly %2) #2 align 16 {
  %4 = load i32, ptr %2, align 4
  %5 = icmp ugt i32 %4, 101
  br i1 %5, label %6, label %16

6:                                                ; preds = %3
  %7 = getelementptr i8, ptr %1, i64 100
  %8 = load i8, ptr %7, align 1
  %9 = icmp eq i8 %8, -127
  br i1 %9, label %10, label %16

10:                                               ; preds = %6
  %11 = getelementptr i8, ptr %1, i64 101
  %12 = load i8, ptr %11, align 1
  %13 = icmp eq i8 %12, 0
  br i1 %13, label %14, label %16

14:                                               ; preds = %10
  %15 = getelementptr inbounds i8, ptr %0, i64 6352
  tail call void (ptr, ptr, ...) @_dev_info(ptr noundef %15, ptr noundef nonnull @.str.2) #5
  store i8 2, ptr %11, align 1
  br label %16

16:                                               ; preds = %14, %10, %6, %3
  ret ptr %1
}

; Function Attrs: cold null_pointer_is_valid
declare dso_local void @_dev_info(ptr noundef, ptr noundef, ...) local_unnamed_addr #3


!llvm.module.flags = !{!0, !1, !2, !3, !4}

!0 = !{i32 1, !"wchar_size", i32 2}
!1 = !{i32 8, !"cf-protection-branch", i32 1}
!2 = !{i32 4, !"function_return_thunk_extern", i32 1}
!3 = !{i32 4, !"indirect_branch_cs_prefix", i32 1}
!4 = !{i32 4, !"SkipRaxSetup", i32 1}
